; Function Attrs: mustprogress uwtable
define void @_ZN5arrow3ipc7feather6Reader4OpenERKSt10shared_ptrINS_2io16RandomAccessFileEE(ptr dead_on_unwind noalias writable sret(%"class.arrow::Result") align 8 %0, ptr noundef nonnull readonly align 8 captures(none) dereferenceable(16) %1) local_unnamed_addr #1 align 2 personality ptr @__gxx_personality_v0 {
  %3 = alloca %"struct.arrow::ipc::IpcReadOptions", align 8
  call void @llvm.lifetime.start.p0(i64 80, ptr nonnull %3) #25
  call void @_ZN5arrow3ipc14IpcReadOptions8DefaultsEv(ptr dead_on_unwind nonnull writable sret(%"struct.arrow::ipc::IpcReadOptions") align 8 %3)
  invoke void @_ZN5arrow3ipc7feather6Reader4OpenERKSt10shared_ptrINS_2io16RandomAccessFileEERKNS0_14IpcReadOptionsE(ptr dead_on_unwind writable sret(%"class.arrow::Result") align 8 %0, ptr noundef nonnull align 8 dereferenceable(16) %1, ptr noundef nonnull align 8 dereferenceable(80) %3)
          to label %4 unwind label %13

4:                                                ; preds = %2
  %5 = getelementptr inbounds nuw i8, ptr %3, i64 16
  %6 = load ptr, ptr %5, align 8, !tbaa !32
  %.not.i.i.i.i = icmp eq ptr %6, null
  br i1 %.not.i.i.i.i, label %_ZN5arrow3ipc14IpcReadOptionsD2Ev.exit, label %7

7:                                                ; preds = %4
  %8 = getelementptr inbounds nuw i8, ptr %3, i64 32
  %9 = load ptr, ptr %8, align 8, !tbaa !36
  %10 = ptrtoint ptr %9 to i64
  %11 = ptrtoint ptr %6 to i64
  %12 = sub i64 %10, %11
  call void @_ZdlPvm(ptr noundef nonnull %6, i64 noundef %12) #26
  br label %_ZN5arrow3ipc14IpcReadOptionsD2Ev.exit

_ZN5arrow3ipc14IpcReadOptionsD2Ev.exit:           ; preds = %4, %7
  call void @llvm.lifetime.end.p0(i64 80, ptr nonnull %3) #25
  ret void

13:                                               ; preds = %2
  %14 = landingpad { ptr, i32 }
          cleanup
  %15 = getelementptr inbounds nuw i8, ptr %3, i64 16
  %16 = load ptr, ptr %15, align 8, !tbaa !32
  %.not.i.i.i.i2 = icmp eq ptr %16, null
  br i1 %.not.i.i.i.i2, label %_ZN5arrow3ipc14IpcReadOptionsD2Ev.exit3, label %17

17:                                               ; preds = %13
  %18 = getelementptr inbounds nuw i8, ptr %3, i64 32
  %19 = load ptr, ptr %18, align 8, !tbaa !36
  %20 = ptrtoint ptr %19 to i64
  %21 = ptrtoint ptr %16 to i64
  %22 = sub i64 %20, %21
  call void @_ZdlPvm(ptr noundef nonnull %16, i64 noundef %22) #26
  br label %_ZN5arrow3ipc14IpcReadOptionsD2Ev.exit3

_ZN5arrow3ipc14IpcReadOptionsD2Ev.exit3:          ; preds = %13, %17
  call void @llvm.lifetime.end.p0(i64 80, ptr nonnull %3) #25
  resume { ptr, i32 } %14
}